target datalayout = "e-m:e-p270:32:32-p271:32:32-p272:64:64-i64:64-i128:128-f80:128-n8:16:32:64-S128"
target triple = "x86_64-unknown-linux-gnu"

%"class.icu_75::MaybeStackArray" = type <{ ptr, i32, i8, [40 x i8], [3 x i8] }>
%"class.icu_75::CharString" = type { %"class.icu_75::MaybeStackArray", i32, [4 x i8] }
%"class.icu_75::CharStringByteSink" = type { %"class.icu_75::ByteSink", ptr }
%"class.icu_75::ByteSink" = type { ptr }
%"class.icu_75::Locale" = type <{ %"class.icu_75::UObject", [12 x i8], [6 x i8], [4 x i8], [2 x i8], i32, [4 x i8], ptr, [157 x i8], [3 x i8], ptr, i8, [7 x i8] }>
%"class.icu_75::UObject" = type { ptr }

@_ZN6icu_7515MaybeStackArrayIcLi40EEC1Ev = weak_odr unnamed_addr alias void (ptr), ptr @_ZN6icu_7515MaybeStackArrayIcLi40EEC2Ev
@_ZN6icu_7515MaybeStackArrayIcLi40EED1Ev = weak_odr unnamed_addr alias void (ptr), ptr @_ZN6icu_7515MaybeStackArrayIcLi40EED2Ev

; Function Attrs: mustprogress nounwind uwtable
define weak_odr noundef ptr @_ZNK6icu_7515MaybeStackArrayIcLi40EE8getAliasEv(ptr noundef nonnull align 8 dereferenceable(53) %this) #0 comdat align 2 {
entry:
  %this.addr = alloca ptr, align 8
  store ptr %this, ptr %this.addr, align 8
  %this1 = load ptr, ptr %this.addr, align 8
  %ptr = getelementptr inbounds %"class.icu_75::MaybeStackArray", ptr %this1, i32 0, i32 0
  %0 = load ptr, ptr %ptr, align 8
  ret ptr %0
}

; Function Attrs: mustprogress nounwind uwtable
define weak_odr noundef nonnull align 1 dereferenceable(1) ptr @_ZN6icu_7515MaybeStackArrayIcLi40EEixEl(ptr noundef nonnull align 8 dereferenceable(53) %this, i64 noundef %i) #0 comdat align 2 {
entry:
  %this.addr = alloca ptr, align 8
  %i.addr = alloca i64, align 8
  store ptr %this, ptr %this.addr, align 8
  store i64 %i, ptr %i.addr, align 8
  %this1 = load ptr, ptr %this.addr, align 8
  %ptr = getelementptr inbounds %"class.icu_75::MaybeStackArray", ptr %this1, i32 0, i32 0
  %0 = load ptr, ptr %ptr, align 8
  %1 = load i64, ptr %i.addr, align 8
  %arrayidx = getelementptr inbounds i8, ptr %0, i64 %1
  ret ptr %arrayidx
}

; Function Attrs: mustprogress nounwind uwtable
define linkonce_odr void @_ZN6icu_7510CharStringD2Ev(ptr noundef nonnull align 8 dereferenceable(60) %this) unnamed_addr #0 comdat align 2 {
entry:
  %this.addr = alloca ptr, align 8
  store ptr %this, ptr %this.addr, align 8
  %this1 = load ptr, ptr %this.addr, align 8
  %buffer = getelementptr inbounds %"class.icu_75::CharString", ptr %this1, i32 0, i32 0
  call void @_ZN6icu_7515MaybeStackArrayIcLi40EED1Ev(ptr noundef nonnull align 8 dereferenceable(53) %buffer) #10
  ret void
}

; Function Attrs: mustprogress nounwind uwtable
define linkonce_odr noundef i32 @_ZNK6icu_7510CharString6lengthEv(ptr noundef nonnull align 8 dereferenceable(60) %this) #0 comdat align 2 {
entry:
  %this.addr = alloca ptr, align 8
  store ptr %this, ptr %this.addr, align 8
  %this1 = load ptr, ptr %this.addr, align 8
  %len = getelementptr inbounds %"class.icu_75::CharString", ptr %this1, i32 0, i32 1
  %0 = load i32, ptr %len, align 8
  ret i32 %0
}

; Function Attrs: mustprogress nounwind uwtable
define linkonce_odr noundef ptr @_ZN6icu_7510CharString4dataEv(ptr noundef nonnull align 8 dereferenceable(60) %this) #0 comdat align 2 {
entry:
  %this.addr = alloca ptr, align 8
  store ptr %this, ptr %this.addr, align 8
  %this1 = load ptr, ptr %this.addr, align 8
  %buffer = getelementptr inbounds %"class.icu_75::CharString", ptr %this1, i32 0, i32 0
  %call = call noundef ptr @_ZNK6icu_7515MaybeStackArrayIcLi40EE8getAliasEv(ptr noundef nonnull align 8 dereferenceable(53) %buffer)
  ret ptr %call
}

; Function Attrs: mustprogress nounwind uwtable
define linkonce_odr noundef signext i8 @_ZNK6icu_7510CharString7isEmptyEv(ptr noundef nonnull align 8 dereferenceable(60) %this) #0 comdat align 2 {
entry:
  %this.addr = alloca ptr, align 8
  store ptr %this, ptr %this.addr, align 8
  %this1 = load ptr, ptr %this.addr, align 8
  %len = getelementptr inbounds %"class.icu_75::CharString", ptr %this1, i32 0, i32 1
  %0 = load i32, ptr %len, align 8
  %cmp = icmp eq i32 %0, 0
  %conv = zext i1 %cmp to i8
  ret i8 %conv
}

; Function Attrs: mustprogress nounwind uwtable
define internal noundef signext i8 @_ZL9U_SUCCESS10UErrorCode(i32 noundef %code) #0 {
entry:
  %code.addr = alloca i32, align 4
  store i32 %code, ptr %code.addr, align 4
  %0 = load i32, ptr %code.addr, align 4
  %cmp = icmp sle i32 %0, 0
  %conv = zext i1 %cmp to i8
  ret i8 %conv
}

; Function Attrs: mustprogress uwtable
define linkonce_odr void @_ZN6icu_7510CharStringC2Ev(ptr noundef nonnull align 8 dereferenceable(60) %this) unnamed_addr #1 comdat align 2 {
entry:
  %this.addr = alloca ptr, align 8
  store ptr %this, ptr %this.addr, align 8
  %this1 = load ptr, ptr %this.addr, align 8
  %buffer = getelementptr inbounds %"class.icu_75::CharString", ptr %this1, i32 0, i32 0
  call void @_ZN6icu_7515MaybeStackArrayIcLi40EEC1Ev(ptr noundef nonnull align 8 dereferenceable(53) %buffer)
  %len = getelementptr inbounds %"class.icu_75::CharString", ptr %this1, i32 0, i32 1
  store i32 0, ptr %len, align 8
  %buffer2 = getelementptr inbounds %"class.icu_75::CharString", ptr %this1, i32 0, i32 0
  %call = call noundef nonnull align 1 dereferenceable(1) ptr @_ZN6icu_7515MaybeStackArrayIcLi40EEixEl(ptr noundef nonnull align 8 dereferenceable(53) %buffer2, i64 noundef 0)
  store i8 0, ptr %call, align 1
  ret void
}

; Function Attrs: mustprogress nounwind uwtable
define internal noundef signext i8 @_ZL9U_FAILURE10UErrorCode(i32 noundef %code) #0 {
entry:
  %code.addr = alloca i32, align 4
  store i32 %code, ptr %code.addr, align 4
  %0 = load i32, ptr %code.addr, align 4
  %cmp = icmp sgt i32 %0, 0
  %conv = zext i1 %cmp to i8
  ret i8 %conv
}

; Function Attrs: mustprogress uwtable
define noundef ptr @_ZNK6icu_756Locale14createKeywordsER10UErrorCode(ptr noundef nonnull align 8 dereferenceable(217) %this, ptr noundef nonnull align 4 dereferenceable(4) %status) #1 align 2 personality ptr @__gxx_personality_v0 {
entry:
  %retval = alloca ptr, align 8
  %this.addr = alloca ptr, align 8
  %status.addr = alloca ptr, align 8
  %result = alloca ptr, align 8
  %variantStart = alloca ptr, align 8
  %assignment = alloca ptr, align 8
  %keywords = alloca %"class.icu_75::CharString", align 8
  %sink = alloca %"class.icu_75::CharStringByteSink", align 8
  %exn.slot = alloca ptr, align 8
  %ehselector.slot = alloca i32, align 4
  %saved-rvalue = alloca ptr, align 8
  %cleanup.cond = alloca i1, align 1
  store ptr %this, ptr %this.addr, align 8
  store ptr %status, ptr %status.addr, align 8
  %this1 = load ptr, ptr %this.addr, align 8
  store ptr null, ptr %result, align 8
  %0 = load ptr, ptr %status.addr, align 8
  %1 = load i32, ptr %0, align 4
  %call = call noundef signext i8 @_ZL9U_FAILURE10UErrorCode(i32 noundef %1)
  %tobool = icmp ne i8 %call, 0
  br i1 %tobool, label %if.then, label %if.end

if.then:                                          ; preds = %entry
  %2 = load ptr, ptr %result, align 8
  store ptr %2, ptr %retval, align 8
  br label %return

if.end:                                           ; preds = %entry
  %fullName = getelementptr inbounds %"class.icu_75::Locale", ptr %this1, i32 0, i32 7
  %3 = load ptr, ptr %fullName, align 8
  %call2 = call noundef ptr @strchr(ptr noundef %3, i32 noundef 64) #13
  store ptr %call2, ptr %variantStart, align 8
  %fullName3 = getelementptr inbounds %"class.icu_75::Locale", ptr %this1, i32 0, i32 7
  %4 = load ptr, ptr %fullName3, align 8
  %call4 = call noundef ptr @strchr(ptr noundef %4, i32 noundef 61) #13
  store ptr %call4, ptr %assignment, align 8
  %5 = load ptr, ptr %variantStart, align 8
  %tobool5 = icmp ne ptr %5, null
  br i1 %tobool5, label %if.then6, label %if.end30

if.then6:                                         ; preds = %if.end
  %6 = load ptr, ptr %assignment, align 8
  %7 = load ptr, ptr %variantStart, align 8
  %cmp = icmp ugt ptr %6, %7
  br i1 %cmp, label %if.then7, label %if.else

if.then7:                                         ; preds = %if.then6
  call void @_ZN6icu_7510CharStringC2Ev(ptr noundef nonnull align 8 dereferenceable(60) %keywords)
  invoke void @_ZN6icu_7518CharStringByteSinkC1EPNS_10CharStringE(ptr noundef nonnull align 8 dereferenceable(16) %sink, ptr noundef %keywords)
          to label %invoke.cont unwind label %lpad

invoke.cont:                                      ; preds = %if.then7
  %8 = load ptr, ptr %variantStart, align 8
  %add.ptr = getelementptr inbounds i8, ptr %8, i64 1
  %9 = load ptr, ptr %status.addr, align 8
  invoke void @ulocimp_getKeywords_75(ptr noundef %add.ptr, i8 noundef signext 64, ptr noundef nonnull align 8 dereferenceable(8) %sink, i8 noundef signext 0, ptr noundef %9)
          to label %invoke.cont9 unwind label %lpad8

invoke.cont9:                                     ; preds = %invoke.cont
  %10 = load ptr, ptr %status.addr, align 8
  %11 = load i32, ptr %10, align 4
  %call11 = invoke noundef signext i8 @_ZL9U_SUCCESS10UErrorCode(i32 noundef %11)
          to label %invoke.cont10 unwind label %lpad8

invoke.cont10:                                    ; preds = %invoke.cont9
  %tobool12 = icmp ne i8 %call11, 0
  br i1 %tobool12, label %land.lhs.true, label %if.end27

land.lhs.true:                                    ; preds = %invoke.cont10
  %call14 = invoke noundef signext i8 @_ZNK6icu_7510CharString7isEmptyEv(ptr noundef nonnull align 8 dereferenceable(60) %keywords)
          to label %invoke.cont13 unwind label %lpad8

invoke.cont13:                                    ; preds = %land.lhs.true
  %tobool15 = icmp ne i8 %call14, 0
  br i1 %tobool15, label %if.end27, label %if.then16

if.then16:                                        ; preds = %invoke.cont13
  %call17 = call noundef ptr @_ZN6icu_757UMemorynwEm(i64 noundef 208) #10
  %new.isnull = icmp eq ptr %call17, null
  store i1 false, ptr %cleanup.cond, align 1
  br i1 %new.isnull, label %new.cont, label %new.notnull

new.notnull:                                      ; preds = %if.then16
  store ptr %call17, ptr %saved-rvalue, align 8
  store i1 true, ptr %cleanup.cond, align 1
  %call20 = invoke noundef ptr @_ZN6icu_7510CharString4dataEv(ptr noundef nonnull align 8 dereferenceable(60) %keywords)
          to label %invoke.cont19 unwind label %lpad18

invoke.cont19:                                    ; preds = %new.notnull
  %call22 = invoke noundef i32 @_ZNK6icu_7510CharString6lengthEv(ptr noundef nonnull align 8 dereferenceable(60) %keywords)
          to label %invoke.cont21 unwind label %lpad18

invoke.cont21:                                    ; preds = %invoke.cont19
  %12 = load ptr, ptr %status.addr, align 8
  invoke void @_ZN6icu_7518KeywordEnumerationC2EPKciiR10UErrorCode(ptr noundef nonnull align 8 dereferenceable(208) %call17, ptr noundef %call20, i32 noundef %call22, i32 noundef 0, ptr noundef nonnull align 4 dereferenceable(4) %12)
          to label %invoke.cont23 unwind label %lpad18

invoke.cont23:                                    ; preds = %invoke.cont21
  br label %new.cont

new.cont:                                         ; preds = %invoke.cont23, %if.then16
  %13 = phi ptr [ %call17, %invoke.cont23 ], [ null, %if.then16 ]
  store ptr %13, ptr %result, align 8
  %14 = load ptr, ptr %result, align 8
  %tobool24 = icmp ne ptr %14, null
  br i1 %tobool24, label %if.end26, label %if.then25

if.then25:                                        ; preds = %new.cont
  %15 = load ptr, ptr %status.addr, align 8
  store i32 7, ptr %15, align 4
  br label %if.end26

lpad:                                             ; preds = %if.then7
  %16 = landingpad { ptr, i32 }
          cleanup
  %17 = extractvalue { ptr, i32 } %16, 0
  store ptr %17, ptr %exn.slot, align 8
  %18 = extractvalue { ptr, i32 } %16, 1
  store i32 %18, ptr %ehselector.slot, align 4
  br label %ehcleanup28

lpad8:                                            ; preds = %land.lhs.true, %invoke.cont9, %invoke.cont
  %19 = landingpad { ptr, i32 }
          cleanup
  %20 = extractvalue { ptr, i32 } %19, 0
  store ptr %20, ptr %exn.slot, align 8
  %21 = extractvalue { ptr, i32 } %19, 1
  store i32 %21, ptr %ehselector.slot, align 4
  br label %ehcleanup

lpad18:                                           ; preds = %invoke.cont21, %invoke.cont19, %new.notnull
  %22 = landingpad { ptr, i32 }
          cleanup
  %23 = extractvalue { ptr, i32 } %22, 0
  store ptr %23, ptr %exn.slot, align 8
  %24 = extractvalue { ptr, i32 } %22, 1
  store i32 %24, ptr %ehselector.slot, align 4
  %cleanup.is_active = load i1, ptr %cleanup.cond, align 1
  br i1 %cleanup.is_active, label %cleanup.action, label %cleanup.done

cleanup.action:                                   ; preds = %lpad18
  %25 = load ptr, ptr %saved-rvalue, align 8
  call void @_ZN6icu_757UMemorydlEPv(ptr noundef %25) #10
  br label %cleanup.done

cleanup.done:                                     ; preds = %cleanup.action, %lpad18
  br label %ehcleanup

if.end26:                                         ; preds = %if.then25, %new.cont
  br label %if.end27

if.end27:                                         ; preds = %if.end26, %invoke.cont13, %invoke.cont10
  call void @_ZN6icu_7518CharStringByteSinkD1Ev(ptr noundef nonnull align 8 dereferenceable(16) %sink) #10
  call void @_ZN6icu_7510CharStringD2Ev(ptr noundef nonnull align 8 dereferenceable(60) %keywords) #10
  br label %if.end29

ehcleanup:                                        ; preds = %cleanup.done, %lpad8
  call void @_ZN6icu_7518CharStringByteSinkD1Ev(ptr noundef nonnull align 8 dereferenceable(16) %sink) #10
  br label %ehcleanup28

ehcleanup28:                                      ; preds = %ehcleanup, %lpad
  call void @_ZN6icu_7510CharStringD2Ev(ptr noundef nonnull align 8 dereferenceable(60) %keywords) #10
  br label %eh.resume

if.else:                                          ; preds = %if.then6
  %26 = load ptr, ptr %status.addr, align 8
  store i32 3, ptr %26, align 4
  br label %if.end29

if.end29:                                         ; preds = %if.else, %if.end27
  br label %if.end30

if.end30:                                         ; preds = %if.end29, %if.end
  %27 = load ptr, ptr %result, align 8
  store ptr %27, ptr %retval, align 8
  br label %return

return:                                           ; preds = %if.end30, %if.then
  %28 = load ptr, ptr %retval, align 8
  ret ptr %28

eh.resume:                                        ; preds = %ehcleanup28
  %exn = load ptr, ptr %exn.slot, align 8
  %sel = load i32, ptr %ehselector.slot, align 4
  %lpad.val = insertvalue { ptr, i32 } poison, ptr %exn, 0
  %lpad.val31 = insertvalue { ptr, i32 } %lpad.val, i32 %sel, 1
  resume { ptr, i32 } %lpad.val31
}