; Function Attrs: mustprogress uwtable
define noundef ptr @_ZNK6icu_756Locale14createKeywordsER10UErrorCode(ptr nocapture noundef nonnull readonly align 8 dereferenceable(217) %this, ptr noundef nonnull align 4 dereferenceable(4) %status) local_unnamed_addr #1 align 2 personality ptr @__gxx_personality_v0 {
entry:
  %keywords = alloca %"class.icu_75::CharString", align 8
  %sink = alloca %"class.icu_75::CharStringByteSink", align 8
  %0 = load i32, ptr %status, align 4
  %cmp.i = icmp slt i32 %0, 1
  br i1 %cmp.i, label %if.end, label %return

if.end:                                           ; preds = %entry
  %fullName = getelementptr inbounds i8, ptr %this, i64 40
  %1 = load ptr, ptr %fullName, align 8
  %call2 = tail call noundef ptr @strchr(ptr noundef nonnull dereferenceable(1) %1, i32 noundef 64) #23
  %tobool5.not = icmp eq ptr %call2, null
  br i1 %tobool5.not, label %return, label %if.then6

if.then6:                                         ; preds = %if.end
  %call4 = tail call noundef ptr @strchr(ptr noundef nonnull dereferenceable(1) %1, i32 noundef 61) #23
  %cmp = icmp ugt ptr %call4, %call2
  br i1 %cmp, label %if.then7, label %if.else

if.then7:                                         ; preds = %if.then6
  call void @_ZN6icu_7515MaybeStackArrayIcLi40EEC1Ev(ptr noundef nonnull align 8 dereferenceable(53) %keywords)
  %len.i = getelementptr inbounds i8, ptr %keywords, i64 56
  store i32 0, ptr %len.i, align 8
  %2 = load ptr, ptr %keywords, align 8
  store i8 0, ptr %2, align 1
  invoke void @_ZN6icu_7518CharStringByteSinkC1EPNS_10CharStringE(ptr noundef nonnull align 8 dereferenceable(16) %sink, ptr noundef nonnull %keywords)
          to label %invoke.cont unwind label %lpad

invoke.cont:                                      ; preds = %if.then7
  %add.ptr = getelementptr inbounds i8, ptr %call2, i64 1
  invoke void @ulocimp_getKeywords_75(ptr noundef nonnull %add.ptr, i8 noundef signext 64, ptr noundef nonnull align 8 dereferenceable(8) %sink, i8 noundef signext 0, ptr noundef nonnull %status)
          to label %invoke.cont9 unwind label %lpad8

invoke.cont9:                                     ; preds = %invoke.cont
  %3 = load i32, ptr %status, align 4
  %cmp.i12 = icmp sgt i32 %3, 0
  %4 = load i32, ptr %len.i, align 8
  %cmp.i15.not = icmp eq i32 %4, 0
  %or.cond = select i1 %cmp.i12, i1 true, i1 %cmp.i15.not
  br i1 %or.cond, label %if.end27, label %if.then16

if.then16:                                        ; preds = %invoke.cont9
  %call17 = call noundef ptr @_ZN6icu_757UMemorynwEm(i64 noundef 208) #20
  %new.isnull = icmp eq ptr %call17, null
  br i1 %new.isnull, label %if.then25, label %new.notnull

new.notnull:                                      ; preds = %if.then16
  %5 = load ptr, ptr %keywords, align 8
  %6 = load i32, ptr %len.i, align 8
  invoke void @_ZN6icu_7518KeywordEnumerationC2EPKciiR10UErrorCode(ptr noundef nonnull align 8 dereferenceable(208) %call17, ptr noundef %5, i32 noundef %6, i32 noundef 0, ptr noundef nonnull align 4 dereferenceable(4) %status)
          to label %if.end27 unwind label %lpad18

if.then25:                                        ; preds = %if.then16
  store i32 7, ptr %status, align 4
  br label %if.end27

lpad:                                             ; preds = %if.then7
  %7 = landingpad { ptr, i32 }
          cleanup
  br label %ehcleanup28

lpad8:                                            ; preds = %invoke.cont
  %8 = landingpad { ptr, i32 }
          cleanup
  br label %ehcleanup

lpad18:                                           ; preds = %new.notnull
  %9 = landingpad { ptr, i32 }
          cleanup
  call void @_ZN6icu_757UMemorydlEPv(ptr noundef nonnull %call17) #20
  br label %ehcleanup

if.end27:                                         ; preds = %new.notnull, %if.then25, %invoke.cont9
  %result.0 = phi ptr [ null, %if.then25 ], [ null, %invoke.cont9 ], [ %call17, %new.notnull ]
  call void @_ZN6icu_7518CharStringByteSinkD1Ev(ptr noundef nonnull align 8 dereferenceable(16) %sink) #20
  call void @_ZN6icu_7515MaybeStackArrayIcLi40EED1Ev(ptr noundef nonnull align 8 dereferenceable(53) %keywords) #20
  br label %return

ehcleanup:                                        ; preds = %lpad18, %lpad8
  %.pn = phi { ptr, i32 } [ %9, %lpad18 ], [ %8, %lpad8 ]
  call void @_ZN6icu_7518CharStringByteSinkD1Ev(ptr noundef nonnull align 8 dereferenceable(16) %sink) #20
  br label %ehcleanup28

ehcleanup28:                                      ; preds = %ehcleanup, %lpad
  %.pn.pn = phi { ptr, i32 } [ %.pn, %ehcleanup ], [ %7, %lpad ]
  call void @_ZN6icu_7515MaybeStackArrayIcLi40EED1Ev(ptr noundef nonnull align 8 dereferenceable(53) %keywords) #20
  resume { ptr, i32 } %.pn.pn

if.else:                                          ; preds = %if.then6
  store i32 3, ptr %status, align 4
  br label %return

return:                                           ; preds = %if.end, %if.else, %if.end27, %entry
  %retval.0 = phi ptr [ null, %entry ], [ %result.0, %if.end27 ], [ null, %if.else ], [ null, %if.end ]
  ret ptr %retval.0
}